; Function Attrs: mustprogress nounwind uwtable
define void @_ZN2cv18GStreamingCompiled4Priv5setupEOSt10unique_ptrINS_5gimpl26GAbstractStreamingExecutorESt14default_deleteIS4_EE(ptr noundef nonnull align 8 captures(none) dereferenceable(104) %0, ptr noundef nonnull align 8 captures(none) dereferenceable(8) %1) local_unnamed_addr #4 align 2 personality ptr @__gxx_personality_v0 {
  %3 = getelementptr inbounds nuw i8, ptr %0, i64 48
  %4 = load ptr, ptr %1, align 8, !tbaa !3
  store ptr null, ptr %1, align 8, !tbaa !3
  %5 = load ptr, ptr %3, align 8, !tbaa !3
  store ptr %4, ptr %3, align 8, !tbaa !3
  %.not.i.i.i.i = icmp eq ptr %5, null
  br i1 %.not.i.i.i.i, label %_ZNSt10unique_ptrIN2cv5gimpl26GAbstractStreamingExecutorESt14default_deleteIS2_EEaSEOS5_.exit, label %_ZNKSt14default_deleteIN2cv5gimpl26GAbstractStreamingExecutorEEclEPS2_.exit.i.i.i.i

_ZNKSt14default_deleteIN2cv5gimpl26GAbstractStreamingExecutorEEclEPS2_.exit.i.i.i.i: ; preds = %2
  %6 = load ptr, ptr %5, align 8, !tbaa !8
  %7 = getelementptr inbounds nuw i8, ptr %6, i64 8
  %8 = load ptr, ptr %7, align 8
  tail call void %8(ptr noundef nonnull align 8 dereferenceable(137) %5) #24
  br label %_ZNSt10unique_ptrIN2cv5gimpl26GAbstractStreamingExecutorESt14default_deleteIS2_EEaSEOS5_.exit

_ZNSt10unique_ptrIN2cv5gimpl26GAbstractStreamingExecutorESt14default_deleteIS2_EEaSEOS5_.exit: ; preds = %2, %_ZNKSt14default_deleteIN2cv5gimpl26GAbstractStreamingExecutorEEclEPS2_.exit.i.i.i.i
  ret void
}